target datalayout = "e-m:e-p270:32:32-p271:32:32-p272:64:64-i64:64-i128:128-f80:128-n8:16:32:64-S128"
target triple = "x86_64-pc-linux-gnu"

%"class.std::error_code" = type { i32, ptr }
%struct.__sigset_t = type { [16 x i64] }

; Function Attrs: mustprogress nounwind uwtable
define linkonce_odr hidden void @_ZNSt10error_codeC2EiRKNSt3_V214error_categoryE(ptr noundef nonnull align 8 dereferenceable(16) %0, i32 noundef %1, ptr noundef nonnull align 8 dereferenceable(8) %2) unnamed_addr #0 comdat align 2 {
  %4 = alloca ptr, align 8
  %5 = alloca i32, align 4
  %6 = alloca ptr, align 8
  store ptr %0, ptr %4, align 8
  store i32 %1, ptr %5, align 4
  store ptr %2, ptr %6, align 8
  %7 = load ptr, ptr %4, align 8
  %8 = getelementptr inbounds nuw %"class.std::error_code", ptr %7, i32 0, i32 0
  %9 = load i32, ptr %5, align 4
  store i32 %9, ptr %8, align 8
  %10 = getelementptr inbounds nuw %"class.std::error_code", ptr %7, i32 0, i32 1
  %11 = load ptr, ptr %6, align 8
  store ptr %11, ptr %10, align 8
  ret void
}

; Function Attrs: mustprogress nounwind uwtable
define linkonce_odr hidden { i32, ptr } @_ZN4llvm16errnoAsErrorCodeEv() #0 comdat {
  %1 = alloca %"class.std::error_code", align 8
  %2 = call ptr @__errno_location() #13
  %3 = load i32, ptr %2, align 4
  %4 = call noundef nonnull align 8 dereferenceable(8) ptr @_ZNSt3_V216generic_categoryEv() #13
  call void @_ZNSt10error_codeC2EiRKNSt3_V214error_categoryE(ptr noundef nonnull align 8 dereferenceable(16) %1, i32 noundef %3, ptr noundef nonnull align 8 dereferenceable(8) %4) #8
  %5 = load { i32, ptr }, ptr %1, align 8
  ret { i32, ptr } %5
}

; Function Attrs: mustprogress nounwind uwtable
define dso_local { i32, ptr } @_ZN4llvm3sys7Process25SafelyCloseFileDescriptorEi(i32 noundef %0) #0 align 2 {
  %2 = alloca %"class.std::error_code", align 8
  %3 = alloca i32, align 4
  %4 = alloca %struct.__sigset_t, align 8
  %5 = alloca %struct.__sigset_t, align 8
  %6 = alloca i32, align 4
  %7 = alloca i32, align 4
  %8 = alloca i32, align 4
  store i32 %0, ptr %3, align 4
  %9 = call i32 @sigfillset(ptr noundef %4) #8
  %10 = icmp slt i32 %9, 0
  br i1 %10, label %14, label %11

11:                                               ; preds = %1
  %12 = call i32 @sigfillset(ptr noundef %5) #8
  %13 = icmp slt i32 %12, 0
  br i1 %13, label %14, label %20

14:                                               ; preds = %11, %1
  %15 = call { i32, ptr } @_ZN4llvm16errnoAsErrorCodeEv()
  %16 = getelementptr inbounds nuw { i32, ptr }, ptr %2, i32 0, i32 0
  %17 = extractvalue { i32, ptr } %15, 0
  store i32 %17, ptr %16, align 8
  %18 = getelementptr inbounds nuw { i32, ptr }, ptr %2, i32 0, i32 1
  %19 = extractvalue { i32, ptr } %15, 1
  store ptr %19, ptr %18, align 8
  br label %44

20:                                               ; preds = %11
  %21 = call i32 @pthread_sigmask(i32 noundef 2, ptr noundef %4, ptr noundef %5) #8
  store i32 %21, ptr %6, align 4
  %22 = load i32, ptr %6, align 4
  %23 = icmp ne i32 %22, 0
  br i1 %23, label %24, label %27

24:                                               ; preds = %20
  %25 = load i32, ptr %6, align 4
  %26 = call noundef nonnull align 8 dereferenceable(8) ptr @_ZNSt3_V216generic_categoryEv() #13
  call void @_ZNSt10error_codeC2EiRKNSt3_V214error_categoryE(ptr noundef nonnull align 8 dereferenceable(16) %2, i32 noundef %25, ptr noundef nonnull align 8 dereferenceable(8) %26) #8
  br label %44

27:                                               ; preds = %20
  store i32 0, ptr %7, align 4
  %28 = load i32, ptr %3, align 4
  %29 = call i32 @close(i32 noundef %28)
  %30 = icmp slt i32 %29, 0
  br i1 %30, label %31, label %34

31:                                               ; preds = %27
  %32 = call ptr @__errno_location() #13
  %33 = load i32, ptr %32, align 4
  store i32 %33, ptr %7, align 4
  br label %34

34:                                               ; preds = %31, %27
  store i32 0, ptr %8, align 4
  %35 = call i32 @pthread_sigmask(i32 noundef 2, ptr noundef %5, ptr noundef null) #8
  store i32 %35, ptr %8, align 4
  %36 = load i32, ptr %7, align 4
  %37 = icmp ne i32 %36, 0
  br i1 %37, label %38, label %41

38:                                               ; preds = %34
  %39 = load i32, ptr %7, align 4
  %40 = call noundef nonnull align 8 dereferenceable(8) ptr @_ZNSt3_V216generic_categoryEv() #13
  call void @_ZNSt10error_codeC2EiRKNSt3_V214error_categoryE(ptr noundef nonnull align 8 dereferenceable(16) %2, i32 noundef %39, ptr noundef nonnull align 8 dereferenceable(8) %40) #8
  br label %44

41:                                               ; preds = %34
  %42 = load i32, ptr %8, align 4
  %43 = call noundef nonnull align 8 dereferenceable(8) ptr @_ZNSt3_V216generic_categoryEv() #13
  call void @_ZNSt10error_codeC2EiRKNSt3_V214error_categoryE(ptr noundef nonnull align 8 dereferenceable(16) %2, i32 noundef %42, ptr noundef nonnull align 8 dereferenceable(8) %43) #8
  br label %44

44:                                               ; preds = %41, %38, %24, %14
  %45 = load { i32, ptr }, ptr %2, align 8
  ret { i32, ptr } %45
}