; Function Attrs: mustprogress nounwind uwtable
define dso_local { i32, ptr } @_ZN4llvm3sys7Process25SafelyCloseFileDescriptorEi(i32 noundef %0) local_unnamed_addr #0 align 2 {
  %2 = alloca %struct.__sigset_t, align 8
  %3 = alloca %struct.__sigset_t, align 8
  %4 = call i32 @sigfillset(ptr noundef nonnull %2) #22
  %5 = icmp slt i32 %4, 0
  br i1 %5, label %9, label %6

6:                                                ; preds = %1
  %7 = call i32 @sigfillset(ptr noundef nonnull %3) #22
  %8 = icmp slt i32 %7, 0
  br i1 %8, label %9, label %12

9:                                                ; preds = %6, %1
  %10 = tail call ptr @__errno_location() #25
  %11 = load i32, ptr %10, align 4
  br label %22

12:                                               ; preds = %6
  %13 = call i32 @pthread_sigmask(i32 noundef 2, ptr noundef nonnull %2, ptr noundef nonnull %3) #22
  %.not = icmp eq i32 %13, 0
  br i1 %.not, label %14, label %22

14:                                               ; preds = %12
  %15 = call i32 @close(i32 noundef %0) #22
  %16 = icmp slt i32 %15, 0
  br i1 %16, label %18, label %.thread

.thread:                                          ; preds = %14
  %17 = call i32 @pthread_sigmask(i32 noundef 2, ptr noundef nonnull %3, ptr noundef null) #22
  br label %22

18:                                               ; preds = %14
  %19 = tail call ptr @__errno_location() #25
  %20 = load i32, ptr %19, align 4
  %21 = call i32 @pthread_sigmask(i32 noundef 2, ptr noundef nonnull %3, ptr noundef null) #22
  %.not7 = icmp eq i32 %20, 0
  %spec.select = select i1 %.not7, i32 %21, i32 %20
  br label %22

22:                                               ; preds = %18, %.thread, %12, %9
  %.sroa.0.0 = phi i32 [ %11, %9 ], [ %13, %12 ], [ %17, %.thread ], [ %spec.select, %18 ]
  %23 = tail call noundef nonnull align 8 dereferenceable(8) ptr @_ZNSt3_V216generic_categoryEv() #25
  %.fca.0.insert = insertvalue { i32, ptr } poison, i32 %.sroa.0.0, 0
  %.fca.1.insert = insertvalue { i32, ptr } %.fca.0.insert, ptr %23, 1
  ret { i32, ptr } %.fca.1.insert
}